(dp0
S'METTS MARK'
p1
(dp2
S'to_messages'
p3
F807.0
sS'deferral_payments'
p4
F0.0
sS'ratio_cced_poi'
p5
F0.8698884758364313
sS'expenses'
p6
F94299.0
sS'poi'
p7
I00
sS'long_term_incentive'
p8
F0.0
sS'from_poi_to_this_person'
p9
F38.0
sS'deferred_income'
p10
F0.0
sS'ratio_bonus_payments'
p11
F0.5650638004119315
sS'restricted_stock_deferred'
p12
F0.0
sS'shared_receipt_with_poi'
p13
F702.0
sS'loan_advances'
p14
F0.0
sS'from_messages'
p15
F29.0
sS'other'
p16
F1740.0
sS'to_poi_ratio'
p17
F0.034482758620689655
sS'director_fees'
p18
F0.0
sS'ratio_bonus_salary'
p19
F1.6402943781644013
sS'bonus'
p20
F600000.0
sS'total_stock_value'
p21
F585062.0
sS'from_this_person_to_poi'
p22
F1.0
sS'from_poi_ratio'
p23
F0.04708798017348203
sS'restricted_stock'
p24
F585062.0
sS'salary'
p25
F365788.0
sS'total_payments'
p26
F1061827.0
sS'exercised_stock_options'
p27
F0.0
ssS'ELLIOTT STEVEN'
p28
(dp29
g3
F0.0
sg4
F0.0
sg5
I0
sg6
F78552.0
sg7
I00
sg8
F0.0
sg9
F0.0
sg10
F-400729.0
sg11
F1.6530877317274766
sg12
F0.0
sg13
F0.0
sg14
F0.0
sg15
F0.0
sg16
F12961.0
sg17
I0
sg18
F0.0
sg19
F2.047490069673162
sg20
F350000.0
sg21
F6678735.0
sg22
F0.0
sg23
I0
sg24
F1788391.0
sg25
F170941.0
sg26
F211725.0
sg27
F4890344.0
ssS'CORDES WILLIAM R'
p30
(dp31
g3
F764.0
sg4
F0.0
sg5
F0.07591623036649214
sg6
F0.0
sg7
I00
sg8
F0.0
sg9
F10.0
sg10
F0.0
sg11
I0
sg12
F0.0
sg13
F58.0
sg14
F0.0
sg15
F12.0
sg16
F0.0
sg17
F0.0
sg18
F0.0
sg19
I0
sg20
F0.0
sg21
F1038185.0
sg22
F0.0
sg23
F0.013089005235602094
sg24
F386335.0
sg25
F0.0
sg26
F0.0
sg27
F651850.0
ssS'HANNON KEVIN P'
p32
(dp33
g3
F1045.0
sg4
F0.0
sg5
F0.9904306220095693
sg6
F34039.0
sg7
I01
sg8
F1617011.0
sg9
F32.0
sg10
F-3117011.0
sg11
F5.196028848352166
sg12
F0.0
sg13
F1035.0
sg14
F0.0
sg15
F32.0
sg16
F11350.0
sg17
F0.65625
sg18
F0.0
sg19
F6.165405498719651
sg20
F1500000.0
sg21
F6391065.0
sg22
F21.0
sg23
F0.03062200956937799
sg24
F853064.0
sg25
F243293.0
sg26
F288682.0
sg27
F5538001.0
ssS'MORDAUNT KRISTINA M'
p34
(dp35
g3
F0.0
sg4
F0.0
sg5
I0
sg6
F35018.0
sg7
I00
sg8
F0.0
sg9
F0.0
sg10
F0.0
sg11
F0.5170861163173286
sg12
F0.0
sg13
F0.0
sg14
F0.0
sg15
F0.0
sg16
F1411.0
sg17
I0
sg18
F0.0
sg19
F1.2168046335920448
sg20
F325000.0
sg21
F208510.0
sg22
F0.0
sg23
I0
sg24
F208510.0
sg25
F267093.0
sg26
F628522.0
sg27
F0.0
ssS'MEYER ROCKFORD G'
p36
(dp37
g3
F232.0
sg4
F1848227.0
sg5
F0.09482758620689655
sg6
F0.0
sg7
I00
sg8
F0.0
sg9
F0.0
sg10
F0.0
sg11
I0
sg12
F0.0
sg13
F22.0
sg14
F0.0
sg15
F28.0
sg16
F0.0
sg17
F0.0
sg18
F0.0
sg19
I0
sg20
F0.0
sg21
F955873.0
sg22
F0.0
sg23
F0.0
sg24
F462384.0
sg25
F0.0
sg26
F1848227.0
sg27
F493489.0
ssS'MCMAHON JEFFREY'
p38
(dp39
g3
F2355.0
sg4
F0.0
sg5
F0.9460721868365181
sg6
F137108.0
sg7
I00
sg8
F694862.0
sg9
F58.0
sg10
F0.0
sg11
F0.6341817628350461
sg12
F0.0
sg13
F2228.0
sg14
F0.0
sg15
F48.0
sg16
F297353.0
sg17
F0.5416666666666666
sg18
F0.0
sg19
F7.018528916339135
sg20
F2600000.0
sg21
F1662855.0
sg22
F26.0
sg23
F0.024628450106157114
sg24
F558801.0
sg25
F370448.0
sg26
F4099771.0
sg27
F1104054.0
ssS'HORTON STANLEY C'
p40
(dp41
g3
F2350.0
sg4
F3131860.0
sg5
F0.4570212765957447
sg6
F0.0
sg7
I00
sg8
F0.0
sg9
F44.0
sg10
F0.0
sg11
I0
sg12
F0.0
sg13
F1074.0
sg14
F0.0
sg15
F1073.0
sg16
F0.0
sg17
F0.013979496738117428
sg18
F0.0
sg19
I0
sg20
F0.0
sg21
F7256648.0
sg22
F15.0
sg23
F0.01872340425531915
sg24
F2046079.0
sg25
F0.0
sg26
F3131860.0
sg27
F5210569.0
ssS'PIPER GREGORY F'
p42
(dp43
g3
F1238.0
sg4
F1130036.0
sg5
F0.5993537964458805
sg6
F43057.0
sg7
I00
sg8
F0.0
sg9
F61.0
sg10
F-33333.0
sg11
F0.23019873632403695
sg12
F-409554.0
sg13
F742.0
sg14
F0.0
sg15
F222.0
sg16
F778.0
sg17
F0.21621621621621623
sg18
F0.0
sg19
F2.0295193590777862
sg20
F400000.0
sg21
F880290.0
sg22
F48.0
sg23
F0.049273021001615507
sg24
F409554.0
sg25
F197091.0
sg26
F1737629.0
sg27
F880290.0
ssS'HUMPHREY GENE E'
p44
(dp45
g3
F128.0
sg4
F2964506.0
sg5
F0.9296875
sg6
F4994.0
sg7
I00
sg8
F0.0
sg9
F10.0
sg10
F0.0
sg11
I0
sg12
F0.0
sg13
F119.0
sg14
F0.0
sg15
F17.0
sg16
F0.0
sg17
F1.0
sg18
F0.0
sg19
I0
sg20
F0.0
sg21
F2282768.0
sg22
F17.0
sg23
F0.078125
sg24
F0.0
sg25
F130724.0
sg26
F3100224.0
sg27
F2282768.0
ssS'UMANOFF ADAM S'
p46
(dp47
g3
F111.0
sg4
F0.0
sg5
F0.36936936936936937
sg6
F53122.0
sg7
I00
sg8
F0.0
sg9
F12.0
sg10
F0.0
sg11
F0.6977242027809893
sg12
F0.0
sg13
F41.0
sg14
F0.0
sg15
F18.0
sg16
F0.0
sg17
F0.0
sg18
F0.0
sg19
F2.7331256562100426
sg20
F788750.0
sg21
F0.0
sg22
F0.0
sg23
F0.10810810810810811
sg24
F0.0
sg25
F288589.0
sg26
F1130461.0
sg27
F0.0
ssS'BLACHMAN JEREMY M'
p48
(dp49
g3
F2475.0
sg4
F0.0
sg5
F0.9397979797979797
sg6
F84208.0
sg7
I00
sg8
F831809.0
sg9
F25.0
sg10
F0.0
sg11
F0.4218707735372872
sg12
F0.0
sg13
F2326.0
sg14
F0.0
sg15
F14.0
sg16
F272.0
sg17
F0.14285714285714285
sg18
F0.0
sg19
F3.419890080709406
sg20
F850000.0
sg21
F954354.0
sg22
F2.0
sg23
F0.010101010101010102
sg24
F189041.0
sg25
F248546.0
sg26
F2014835.0
sg27
F765313.0
ssS'SUNDE MARTIN'
p50
(dp51
g3
F2647.0
sg4
F0.0
sg5
F0.9690215338118625
sg6
F0.0
sg7
I00
sg8
F476451.0
sg9
F37.0
sg10
F0.0
sg11
F0.4530571324460749
sg12
F0.0
sg13
F2565.0
sg14
F0.0
sg15
F38.0
sg16
F111122.0
sg17
F0.34210526315789475
sg18
F0.0
sg19
F2.7185944090164127
sg20
F700000.0
sg21
F698920.0
sg22
F13.0
sg23
F0.013978088401964487
sg24
F698920.0
sg25
F257486.0
sg26
F1545059.0
sg27
F0.0
ssS'GIBBS DANA R'
p52
(dp53
g3
F169.0
sg4
F504610.0
sg5
F0.13609467455621302
sg6
F0.0
sg7
I00
sg8
F461912.0
sg9
F0.0
sg10
F0.0
sg11
I0
sg12
F0.0
sg13
F23.0
sg14
F0.0
sg15
F12.0
sg16
F0.0
sg17
F0.0
sg18
F0.0
sg19
I0
sg20
F0.0
sg21
F2218275.0
sg22
F0.0
sg23
F0.0
sg24
F0.0
sg25
F0.0
sg26
F966522.0
sg27
F2218275.0
ssS'LOWRY CHARLES P'
p54
(dp55
g3
F0.0
sg4
F0.0
sg5
I0
sg6
F0.0
sg7
I00
sg8
F0.0
sg9
F0.0
sg10
F0.0
sg11
I0
sg12
F-153686.0
sg13
F0.0
sg14
F0.0
sg15
F0.0
sg16
F0.0
sg17
I0
sg18
F0.0
sg19
I0
sg20
F0.0
sg21
F372205.0
sg22
F0.0
sg23
I0
sg24
F153686.0
sg25
F0.0
sg26
F0.0
sg27
F372205.0
ssS'COLWELL WESLEY'
p56
(dp57
g3
F1758.0
sg4
F27610.0
sg5
F0.6439135381114903
sg6
F16514.0
sg7
I01
sg8
F0.0
sg9
F240.0
sg10
F-144062.0
sg11
F0.8051832328643588
sg12
F0.0
sg13
F1132.0
sg14
F0.0
sg15
F40.0
sg16
F101740.0
sg17
F0.275
sg18
F0.0
sg19
F4.158839960906905
sg20
F1200000.0
sg21
F698242.0
sg22
F11.0
sg23
F0.13651877133105803
sg24
F698242.0
sg25
F288542.0
sg26
F1490344.0
sg27
F0.0
ssS'MULLER MARK S'
p58
(dp59
g3
F136.0
sg4
F842924.0
sg5
F0.8382352941176471
sg6
F0.0
sg7
I00
sg8
F1725545.0
sg9
F12.0
sg10
F-719000.0
sg11
F0.3435277804670104
sg12
F0.0
sg13
F114.0
sg14
F0.0
sg15
F16.0
sg16
F947.0
sg17
F0.0
sg18
F0.0
sg19
F4.3710809285765375
sg20
F1100000.0
sg21
F1416848.0
sg22
F0.0
sg23
F0.08823529411764706
sg24
F360528.0
sg25
F251654.0
sg26
F3202070.0
sg27
F1056320.0
ssS'JACKSON CHARLENE R'
p60
(dp61
g3
F258.0
sg4
F0.0
sg5
F0.45348837209302323
sg6
F10181.0
sg7
I00
sg8
F0.0
sg9
F25.0
sg10
F0.0
sg11
F0.453577273238578
sg12
F0.0
sg13
F117.0
sg14
F0.0
sg15
F56.0
sg16
F2435.0
sg17
F0.3392857142857143
sg18
F0.0
sg19
F0.8663769502145149
sg20
F250000.0
sg21
F725735.0
sg22
F19.0
sg23
F0.09689922480620156
sg24
F540672.0
sg25
F288558.0
sg26
F551174.0
sg27
F185063.0
ssS'WESTFAHL RICHARD K'
p62
(dp63
g3
F0.0
sg4
F0.0
sg5
I0
sg6
F51870.0
sg7
I00
sg8
F256191.0
sg9
F0.0
sg10
F-10800.0
sg11
I0
sg12
F0.0
sg13
F0.0
sg14
F0.0
sg15
F0.0
sg16
F401130.0
sg17
I0
sg18
F0.0
sg19
I0
sg20
F0.0
sg21
F384930.0
sg22
F0.0
sg23
I0
sg24
F384930.0
sg25
F63744.0
sg26
F762135.0
sg27
F0.0
ssS'WALTERS GARETH W'
p64
(dp65
g3
F0.0
sg4
F53625.0
sg5
I0
sg6
F33785.0
sg7
I00
sg8
F0.0
sg9
F0.0
sg10
F0.0
sg11
I0
sg12
F0.0
sg13
F0.0
sg14
F0.0
sg15
F0.0
sg16
F0.0
sg17
I0
sg18
F0.0
sg19
I0
sg20
F0.0
sg21
F1030329.0
sg22
F0.0
sg23
I0
sg24
F0.0
sg25
F0.0
sg26
F87410.0
sg27
F1030329.0
ssS'WALLS JR ROBERT H'
p66
(dp67
g3
F671.0
sg4
F0.0
sg5
F0.3204172876304024
sg6
F50936.0
sg7
I00
sg8
F540751.0
sg9
F17.0
sg10
F0.0
sg11
F0.47254250102847484
sg12
F0.0
sg13
F215.0
sg14
F0.0
sg15
F146.0
sg16
F2.0
sg17
F0.0
sg18
F0.0
sg19
F2.380345626184922
sg20
F850000.0
sg21
F5898997.0
sg22
F0.0
sg23
F0.02533532041728763
sg24
F1552453.0
sg25
F357091.0
sg26
F1798780.0
sg27
F4346544.0
ssS'KITCHEN LOUISE'
p68
(dp69
g3
F8305.0
sg4
F0.0
sg5
F0.441782059000602
sg6
F5774.0
sg7
I00
sg8
F0.0
sg9
F251.0
sg10
F0.0
sg11
F0.8930780973748977
sg12
F0.0
sg13
F3669.0
sg14
F0.0
sg15
F1728.0
sg16
F93925.0
sg17
F0.11226851851851852
sg18
F0.0
sg19
F11.420487617981005
sg20
F3100000.0
sg21
F547143.0
sg22
F194.0
sg23
F0.030222757375075255
sg24
F466101.0
sg25
F271442.0
sg26
F3471141.0
sg27
F81042.0
ssS'CHAN RONNIE'
p70
(dp71
g3
F0.0
sg4
F0.0
sg5
I0
sg6
F0.0
sg7
I00
sg8
F0.0
sg9
F0.0
sg10
F-98784.0
sg11
I0
sg12
F-32460.0
sg13
F0.0
sg14
F0.0
sg15
F0.0
sg16
F0.0
sg17
I0
sg18
F98784.0
sg19
I0
sg20
F0.0
sg21
F0.0
sg22
F0.0
sg23
I0
sg24
F32460.0
sg25
F0.0
sg26
F0.0
sg27
F0.0
ssS'BELFER ROBERT'
p72
(dp73
g3
F0.0
sg4
F-102500.0
sg5
I0
sg6
F0.0
sg7
I00
sg8
F0.0
sg9
F0.0
sg10
F0.0
sg11
I0
sg12
F44093.0
sg13
F0.0
sg14
F0.0
sg15
F0.0
sg16
F0.0
sg17
I0
sg18
F3285.0
sg19
I0
sg20
F0.0
sg21
F-44093.0
sg22
F0.0
sg23
I0
sg24
F0.0
sg25
F0.0
sg26
F102500.0
sg27
F3285.0
ssS'SHANKMAN JEFFREY A'
p74
(dp75
g3
F3221.0
sg4
F0.0
sg5
F0.5371002794163303
sg6
F178979.0
sg7
I00
sg8
F554422.0
sg9
F94.0
sg10
F0.0
sg11
F0.6581757605714545
sg12
F0.0
sg13
F1730.0
sg14
F0.0
sg15
F2681.0
sg16
F1191.0
sg17
F0.030958597538232
sg18
F0.0
sg19
F6.576567689322943
sg20
F2000000.0
sg21
F2072035.0
sg22
F83.0
sg23
F0.029183483390251473
sg24
F630137.0
sg25
F304110.0
sg26
F3038702.0
sg27
F1441898.0
ssS'WODRASKA JOHN'
p76
(dp77
g3
F0.0
sg4
F0.0
sg5
I0
sg6
F0.0
sg7
I00
sg8
F0.0
sg9
F0.0
sg10
F0.0
sg11
I0
sg12
F0.0
sg13
F0.0
sg14
F0.0
sg15
F0.0
sg16
F189583.0
sg17
I0
sg18
F0.0
sg19
I0
sg20
F0.0
sg21
F0.0
sg22
F0.0
sg23
I0
sg24
F0.0
sg25
F0.0
sg26
F189583.0
sg27
F0.0
ssS'BERGSIEKER RICHARD P'
p78
(dp79
g3
F383.0
sg4
F0.0
sg5
F0.608355091383812
sg6
F59175.0
sg7
I00
sg8
F180250.0
sg9
F4.0
sg10
F-485813.0
sg11
F0.4039751151329078
sg12
F0.0
sg13
F233.0
sg14
F0.0
sg15
F59.0
sg16
F427316.0
sg17
F0.0
sg18
F0.0
sg19
F1.3303391832781686
sg20
F250000.0
sg21
F659249.0
sg22
F0.0
sg23
F0.010443864229765013
sg24
F659249.0
sg25
F187922.0
sg26
F618850.0
sg27
F0.0
ssS'URQUHART JOHN A'
p80
(dp81
g3
F0.0
sg4
F0.0
sg5
I0
sg6
F228656.0
sg7
I00
sg8
F0.0
sg9
F0.0
sg10
F-36666.0
sg11
I0
sg12
F0.0
sg13
F0.0
sg14
F0.0
sg15
F0.0
sg16
F0.0
sg17
I0
sg18
F36666.0
sg19
I0
sg20
F0.0
sg21
F0.0
sg22
F0.0
sg23
I0
sg24
F0.0
sg25
F0.0
sg26
F228656.0
sg27
F0.0
ssS'BIBI PHILIPPE A'
p82
(dp83
g3
F1607.0
sg4
F0.0
sg5
F0.8313627878033603
sg6
F38559.0
sg7
I00
sg8
F369721.0
sg9
F23.0
sg10
F0.0
sg11
F0.4883783056496091
sg12
F0.0
sg13
F1336.0
sg14
F0.0
sg15
F40.0
sg16
F425688.0
sg17
F0.2
sg18
F0.0
sg19
F4.681100058513751
sg20
F1000000.0
sg21
F1843816.0
sg22
F8.0
sg23
F0.01431238332296204
sg24
F378082.0
sg25
F213625.0
sg26
F2047593.0
sg27
F1465734.0
ssS'PIRO JIM'
p84
(dp85
g3
F58.0
sg4
F0.0
sg5
F0.05172413793103448
sg6
F0.0
sg7
I00
sg8
F0.0
sg9
F0.0
sg10
F0.0
sg11
I0
sg12
F0.0
sg13
F3.0
sg14
F0.0
sg15
F16.0
sg16
F0.0
sg17
F0.0625
sg18
F0.0
sg19
I0
sg20
F0.0
sg21
F47304.0
sg22
F1.0
sg23
F0.0
sg24
F47304.0
sg25
F0.0
sg26
F0.0
sg27
F0.0
ssS'RIEKER PAULA H'
p86
(dp87
g3
F1328.0
sg4
F214678.0
sg5
F0.947289156626506
sg6
F33271.0
sg7
I01
sg8
F0.0
sg9
F35.0
sg10
F-100000.0
sg11
F0.6368847238649804
sg12
F0.0
sg13
F1258.0
sg14
F0.0
sg15
F82.0
sg16
F1950.0
sg17
F0.5853658536585366
sg18
F0.0
sg19
F2.8089774920646384
sg20
F700000.0
sg21
F1918887.0
sg22
F48.0
sg23
F0.02635542168674699
sg24
F283649.0
sg25
F249201.0
sg26
F1099100.0
sg27
F1635238.0
ssS'WHALEY DAVID A'
p88
(dp89
g3
F0.0
sg4
F0.0
sg5
I0
sg6
F0.0
sg7
I00
sg8
F0.0
sg9
F0.0
sg10
F0.0
sg11
I0
sg12
F0.0
sg13
F0.0
sg14
F0.0
sg15
F0.0
sg16
F0.0
sg17
I0
sg18
F0.0
sg19
I0
sg20
F0.0
sg21
F98718.0
sg22
F0.0
sg23
I0
sg24
F0.0
sg25
F0.0
sg26
F0.0
sg27
F98718.0
ssS'BECK SALLY W'
p90
(dp91
g3
F7315.0
sg4
F0.0
sg5
F0.36076555023923446
sg6
F37172.0
sg7
I00
sg8
F0.0
sg9
F144.0
sg10
F0.0
sg11
F0.7223435300721931
sg12
F0.0
sg13
F2639.0
sg14
F0.0
sg15
F4343.0
sg16
F566.0
sg17
F0.08887865530739121
sg18
F0.0
sg19
F3.025980201443825
sg20
F700000.0
sg21
F126027.0
sg22
F386.0
sg23
F0.01968557758031442
sg24
F126027.0
sg25
F231330.0
sg26
F969068.0
sg27
F0.0
ssS'HAUG DAVID L'
p92
(dp93
g3
F573.0
sg4
F0.0
sg5
F0.8219895287958116
sg6
F475.0
sg7
I00
sg8
F0.0
sg9
F4.0
sg10
F0.0
sg11
I0
sg12
F0.0
sg13
F471.0
sg14
F0.0
sg15
F19.0
sg16
F0.0
sg17
F0.3684210526315789
sg18
F0.0
sg19
I0
sg20
F0.0
sg21
F2217299.0
sg22
F7.0
sg23
F0.006980802792321117
sg24
F2217299.0
sg25
F0.0
sg26
F475.0
sg27
F0.0
ssS'ECHOLS JOHN B'
p94
(dp95
g3
F0.0
sg4
F0.0
sg5
I0
sg6
F21530.0
sg7
I00
sg8
F2234774.0
sg9
F0.0
sg10
F0.0
sg11
F0.07428526432925606
sg12
F0.0
sg13
F0.0
sg14
F0.0
sg15
F0.0
sg16
F53775.0
sg17
I0
sg18
F0.0
sg19
F1.0974237976350518
sg20
F200000.0
sg21
F1008941.0
sg22
F0.0
sg23
I0
sg24
F407503.0
sg25
F182245.0
sg26
F2692324.0
sg27
F601438.0
ssS'MENDELSOHN JOHN'
p96
(dp97
g3
F0.0
sg4
F0.0
sg5
I0
sg6
F148.0
sg7
I00
sg8
F0.0
sg9
F0.0
sg10
F-103750.0
sg11
I0
sg12
F0.0
sg13
F0.0
sg14
F0.0
sg15
F0.0
sg16
F0.0
sg17
I0
sg18
F103750.0
sg19
I0
sg20
F0.0
sg21
F0.0
sg22
F0.0
sg23
I0
sg24
F0.0
sg25
F0.0
sg26
F148.0
sg27
F0.0
ssS'HICKERSON GARY J'
p98
(dp99
g3
F1320.0
sg4
F0.0
sg5
F0.6818181818181818
sg6
F98849.0
sg7
I00
sg8
F69223.0
sg9
F40.0
sg10
F0.0
sg11
F0.8166025873812804
sg12
F0.0
sg13
F900.0
sg14
F0.0
sg15
F27.0
sg16
F1936.0
sg17
F0.037037037037037035
sg18
F0.0
sg19
F8.02689481934765
sg20
F1700000.0
sg21
F441096.0
sg22
F1.0
sg23
F0.030303030303030304
sg24
F441096.0
sg25
F211788.0
sg26
F2081796.0
sg27
F0.0
ssS'CLINE KENNETH W'
p100
(dp101
g3
F0.0
sg4
F0.0
sg5
I0
sg6
F0.0
sg7
I00
sg8
F0.0
sg9
F0.0
sg10
F0.0
sg11
I0
sg12
F-472568.0
sg13
F0.0
sg14
F0.0
sg15
F0.0
sg16
F0.0
sg17
I0
sg18
F0.0
sg19
I0
sg20
F0.0
sg21
F189518.0
sg22
F0.0
sg23
I0
sg24
F662086.0
sg25
F0.0
sg26
F0.0
sg27
F0.0
ssS'LEWIS RICHARD'
p102
(dp103
g3
F952.0
sg4
F0.0
sg5
F0.7762605042016807
sg6
F0.0
sg7
I00
sg8
F0.0
sg9
F10.0
sg10
F0.0
sg11
I0
sg12
F0.0
sg13
F739.0
sg14
F0.0
sg15
F26.0
sg16
F0.0
sg17
F0.0
sg18
F0.0
sg19
I0
sg20
F0.0
sg21
F850477.0
sg22
F0.0
sg23
F0.01050420168067227
sg24
F0.0
sg25
F0.0
sg26
F0.0
sg27
F850477.0
ssS'HAYES ROBERT E'
p104
(dp105
g3
F504.0
sg4
F7961.0
sg5
F0.0992063492063492
sg6
F0.0
sg7
I00
sg8
F0.0
sg9
F16.0
sg10
F0.0
sg11
I0
sg12
F0.0
sg13
F50.0
sg14
F0.0
sg15
F12.0
sg16
F0.0
sg17
F0.0
sg18
F0.0
sg19
I0
sg20
F0.0
sg21
F151418.0
sg22
F0.0
sg23
F0.031746031746031744
sg24
F151418.0
sg25
F0.0
sg26
F7961.0
sg27
F0.0
ssS'KOPPER MICHAEL J'
p106
(dp107
g3
F0.0
sg4
F0.0
sg5
I0
sg6
F118134.0
sg7
I01
sg8
F602671.0
sg9
F0.0
sg10
F0.0
sg11
F0.30158952760524343
sg12
F0.0
sg13
F0.0
sg14
F0.0
sg15
F0.0
sg16
F907502.0
sg17
I0
sg18
F0.0
sg19
F3.5665723011078665
sg20
F800000.0
sg21
F985032.0
sg22
F0.0
sg23
I0
sg24
F985032.0
sg25
F224305.0
sg26
F2652612.0
sg27
F0.0
ssS'LEFF DANIEL P'
p108
(dp109
g3
F2822.0
sg4
F0.0
sg5
F0.9468462083628633
sg6
F0.0
sg7
I00
sg8
F1387399.0
sg9
F67.0
sg10
F0.0
sg11
F0.3753432514034084
sg12
F0.0
sg13
F2672.0
sg14
F0.0
sg15
F63.0
sg16
F3083.0
sg17
F0.2222222222222222
sg18
F0.0
sg19
F3.653021414011529
sg20
F1000000.0
sg21
F360528.0
sg22
F14.0
sg23
F0.02374202693125443
sg24
F360528.0
sg25
F273746.0
sg26
F2664228.0
sg27
F0.0
ssS'CHRISTODOULOU DIOMEDES'
p110
(dp111
g3
F0.0
sg4
F0.0
sg5
I0
sg6
F0.0
sg7
I00
sg8
F0.0
sg9
F0.0
sg10
F0.0
sg11
I0
sg12
F0.0
sg13
F0.0
sg14
F0.0
sg15
F0.0
sg16
F0.0
sg17
I0
sg18
F0.0
sg19
I0
sg20
F0.0
sg21
F6077885.0
sg22
F0.0
sg23
I0
sg24
F950730.0
sg25
F0.0
sg26
F0.0
sg27
F5127155.0
ssS'BERBERIAN DAVID'
p112
(dp113
g3
F0.0
sg4
F0.0
sg5
I0
sg6
F11892.0
sg7
I00
sg8
F0.0
sg9
F0.0
sg10
F0.0
sg11
I0
sg12
F0.0
sg13
F0.0
sg14
F0.0
sg15
F0.0
sg16
F0.0
sg17
I0
sg18
F0.0
sg19
I0
sg20
F0.0
sg21
F2493616.0
sg22
F0.0
sg23
I0
sg24
F869220.0
sg25
F216582.0
sg26
F228474.0
sg27
F1624396.0
ssS'DETMERING TIMOTHY J'
p114
(dp115
g3
F0.0
sg4
F875307.0
sg5
I0
sg6
F52255.0
sg7
I00
sg8
F415657.0
sg9
F0.0
sg10
F-775241.0
sg11
F0.3528191913716199
sg12
F-315068.0
sg13
F0.0
sg14
F0.0
sg15
F0.0
sg16
F1105.0
sg17
I0
sg18
F0.0
sg19
F2.019002375296912
sg20
F425000.0
sg21
F2027865.0
sg22
F0.0
sg23
I0
sg24
F315068.0
sg25
F210500.0
sg26
F1204583.0
sg27
F2027865.0
ssS'WAKEHAM JOHN'
p116
(dp117
g3
F0.0
sg4
F0.0
sg5
I0
sg6
F103773.0
sg7
I00
sg8
F0.0
sg9
F0.0
sg10
F0.0
sg11
I0
sg12
F0.0
sg13
F0.0
sg14
F0.0
sg15
F0.0
sg16
F0.0
sg17
I0
sg18
F109298.0
sg19
I0
sg20
F0.0
sg21
F0.0
sg22
F0.0
sg23
I0
sg24
F0.0
sg25
F0.0
sg26
F213071.0
sg27
F0.0
ssS'POWERS WILLIAM'
p118
(dp119
g3
F653.0
sg4
F0.0
sg5
F0.018376722817764167
sg6
F0.0
sg7
I00
sg8
F0.0
sg9
F0.0
sg10
F-17500.0
sg11
I0
sg12
F0.0
sg13
F12.0
sg14
F0.0
sg15
F26.0
sg16
F0.0
sg17
F0.0
sg18
F17500.0
sg19
I0
sg20
F0.0
sg21
F0.0
sg22
F0.0
sg23
F0.0
sg24
F0.0
sg25
F0.0
sg26
F0.0
sg27
F0.0
ssS'GOLD JOSEPH'
p120
(dp121
g3
F0.0
sg4
F0.0
sg5
I0
sg6
F0.0
sg7
I00
sg8
F304805.0
sg9
F0.0
sg10
F0.0
sg11
F0.34932903208377564
sg12
F0.0
sg13
F0.0
sg14
F0.0
sg15
F0.0
sg16
F819288.0
sg17
I0
sg18
F0.0
sg19
F2.748460861917326
sg20
F750000.0
sg21
F877611.0
sg22
F0.0
sg23
I0
sg24
F441096.0
sg25
F272880.0
sg26
F2146973.0
sg27
F436515.0
ssS'BANNANTINE JAMES M'
p122
(dp123
g3
F566.0
sg4
F0.0
sg5
F0.8215547703180212
sg6
F56301.0
sg7
I00
sg8
F0.0
sg9
F39.0
sg10
F-5104.0
sg11
I0
sg12
F-560222.0
sg13
F465.0
sg14
F0.0
sg15
F29.0
sg16
F864523.0
sg17
F0.0
sg18
F0.0
sg19
I0
sg20
F0.0
sg21
F5243487.0
sg22
F0.0
sg23
F0.06890459363957598
sg24
F1757552.0
sg25
F477.0
sg26
F916197.0
sg27
F4046157.0
ssS'DUNCAN JOHN H'
p124
(dp125
g3
F0.0
sg4
F0.0
sg5
I0
sg6
F0.0
sg7
I00
sg8
F0.0
sg9
F0.0
sg10
F-25000.0
sg11
I0
sg12
F0.0
sg13
F0.0
sg14
F0.0
sg15
F0.0
sg16
F0.0
sg17
I0
sg18
F102492.0
sg19
I0
sg20
F0.0
sg21
F371750.0
sg22
F0.0
sg23
I0
sg24
F0.0
sg25
F0.0
sg26
F77492.0
sg27
F371750.0
ssS'SHAPIRO RICHARD S'
p126
(dp127
g3
F15149.0
sg4
F0.0
sg5
F0.29883160604660375
sg6
F137767.0
sg7
I00
sg8
F0.0
sg9
F74.0
sg10
F0.0
sg11
F0.6146293123338137
sg12
F0.0
sg13
F4527.0
sg14
F0.0
sg15
F1215.0
sg16
F705.0
sg17
F0.053497942386831275
sg18
F0.0
sg19
F2.4156743819590005
sg20
F650000.0
sg21
F987001.0
sg22
F65.0
sg23
F0.0048848108786058485
sg24
F379164.0
sg25
F269076.0
sg26
F1057548.0
sg27
F607837.0
ssS'SHERRIFF JOHN R'
p128
(dp129
g3
F3187.0
sg4
F0.0
sg5
F0.6598682146219015
sg6
F0.0
sg7
I00
sg8
F554422.0
sg9
F28.0
sg10
F0.0
sg11
F0.34598979376240374
sg12
F0.0
sg13
F2103.0
sg14
F0.0
sg15
F92.0
sg16
F1852186.0
sg17
F0.25
sg18
F0.0
sg19
F3.4982974952189934
sg20
F1500000.0
sg21
F3128982.0
sg22
F23.0
sg23
F0.008785691873235017
sg24
F1293424.0
sg25
F428780.0
sg26
F4335388.0
sg27
F1835558.0
ssS'SHELBY REX'
p130
(dp131
g3
F225.0
sg4
F0.0
sg5
F0.40444444444444444
sg6
F22884.0
sg7
I01
sg8
F0.0
sg9
F13.0
sg10
F-4167.0
sg11
F0.09980612659908128
sg12
F0.0
sg13
F91.0
sg14
F0.0
sg15
F39.0
sg16
F1573324.0
sg17
F0.358974358974359
sg18
F0.0
sg19
F0.9440909348388437
sg20
F200000.0
sg21
F2493616.0
sg22
F14.0
sg23
F0.057777777777777775
sg24
F869220.0
sg25
F211844.0
sg26
F2003885.0
sg27
F1624396.0
ssS'LEMAISTRE CHARLES'
p132
(dp133
g3
F0.0
sg4
F0.0
sg5
I0
sg6
F0.0
sg7
I00
sg8
F0.0
sg9
F0.0
sg10
F-25000.0
sg11
I0
sg12
F0.0
sg13
F0.0
sg14
F0.0
sg15
F0.0
sg16
F0.0
sg17
I0
sg18
F112492.0
sg19
I0
sg20
F0.0
sg21
F412878.0
sg22
F0.0
sg23
I0
sg24
F0.0
sg25
F0.0
sg26
F87492.0
sg27
F412878.0
ssS'DEFFNER JOSEPH M'
p134
(dp135
g3
F714.0
sg4
F0.0
sg5
F0.773109243697479
sg6
F41626.0
sg7
I00
sg8
F335349.0
sg9
F115.0
sg10
F0.0
sg11
F0.49642203815996205
sg12
F0.0
sg13
F552.0
sg14
F0.0
sg15
F74.0
sg16
F25553.0
sg17
F0.05405405405405406
sg18
F0.0
sg19
F2.910911551952494
sg20
F600000.0
sg21
F159211.0
sg22
F4.0
sg23
F0.16106442577030813
sg24
F141833.0
sg25
F206121.0
sg26
F1208649.0
sg27
F17378.0
ssS'KISHKILL JOSEPH G'
p136
(dp137
g3
F0.0
sg4
F0.0
sg5
I0
sg6
F116335.0
sg7
I00
sg8
F0.0
sg9
F0.0
sg10
F-51042.0
sg11
I0
sg12
F0.0
sg13
F0.0
sg14
F0.0
sg15
F0.0
sg16
F465357.0
sg17
I0
sg18
F0.0
sg19
I0
sg20
F0.0
sg21
F1034346.0
sg22
F0.0
sg23
I0
sg24
F1034346.0
sg25
F174246.0
sg26
F704896.0
sg27
F0.0
ssS'WHALLEY LAWRENCE G'
p138
(dp139
g3
F6019.0
sg4
F0.0
sg5
F0.6512709752450573
sg6
F57838.0
sg7
I00
sg8
F808346.0
sg9
F186.0
sg10
F0.0
sg11
F0.6413581057189047
sg12
F0.0
sg13
F3920.0
sg14
F0.0
sg15
F556.0
sg16
F301026.0
sg17
F0.04316546762589928
sg18
F0.0
sg19
F5.878157550297435
sg20
F3000000.0
sg21
F6079137.0
sg22
F24.0
sg23
F0.03090214321315833
sg24
F2796177.0
sg25
F510364.0
sg26
F4677574.0
sg27
F3282960.0
ssS'HAYSLETT RODERICK J'
p140
(dp141
g3
F2649.0
sg4
F0.0
sg5
F0.21555303888259722
sg6
F0.0
sg7
I00
sg8
F0.0
sg9
F35.0
sg10
F0.0
sg11
I0
sg12
F0.0
sg13
F571.0
sg14
F0.0
sg15
F1061.0
sg16
F0.0
sg17
F0.03581526861451461
sg18
F0.0
sg19
I0
sg20
F0.0
sg21
F346663.0
sg22
F38.0
sg23
F0.01321253303133258
sg24
F346663.0
sg25
F0.0
sg26
F0.0
sg27
F0.0
ssS'MCCONNELL MICHAEL S'
p142
(dp143
g3
F3329.0
sg4
F0.0
sg5
F0.657554821267648
sg6
F81364.0
sg7
I00
sg8
F554422.0
sg9
F92.0
sg10
F0.0
sg11
F0.5234695178940917
sg12
F0.0
sg13
F2189.0
sg14
F0.0
sg15
F2742.0
sg16
F540.0
sg17
F0.07075127644055434
sg18
F0.0
sg19
F3.013384907872605
sg20
F1100000.0
sg21
F3101279.0
sg22
F194.0
sg23
F0.02763592670471613
sg24
F1478269.0
sg25
F365038.0
sg26
F2101364.0
sg27
F1623010.0
ssS'DELAINEY DAVID W'
p144
(dp145
g3
F3093.0
sg4
F0.0
sg5
F0.6779825412221144
sg6
F86174.0
sg7
I01
sg8
F1294981.0
sg9
F66.0
sg10
F0.0
sg11
F0.6318477819720769
sg12
F0.0
sg13
F2097.0
sg14
F0.0
sg15
F3069.0
sg16
F1661.0
sg17
F0.198435972629521
sg18
F0.0
sg19
F8.215509238340138
sg20
F3000000.0
sg21
F3614261.0
sg22
F609.0
sg23
F0.02133850630455868
sg24
F1323148.0
sg25
F365163.0
sg26
F4747979.0
sg27
F2291113.0
ssS'SULLIVAN-SHAKLOVITZ COLLEEN'
p146
(dp147
g3
F0.0
sg4
F181993.0
sg5
I0
sg6
F0.0
sg7
I00
sg8
F554422.0
sg9
F0.0
sg10
F0.0
sg11
F0.10006444150032621
sg12
F0.0
sg13
F0.0
sg14
F0.0
sg15
F0.0
sg16
F162.0
sg17
I0
sg18
F0.0
sg19
F0.6143298582741017
sg20
F100000.0
sg21
F1362375.0
sg22
F0.0
sg23
I0
sg24
F0.0
sg25
F162779.0
sg26
F999356.0
sg27
F1362375.0
ssS'WROBEL BRUCE'
p148
(dp149
g3
F0.0
sg4
F0.0
sg5
I0
sg6
F0.0
sg7
I00
sg8
F0.0
sg9
F0.0
sg10
F0.0
sg11
I0
sg12
F0.0
sg13
F0.0
sg14
F0.0
sg15
F0.0
sg16
F0.0
sg17
I0
sg18
F0.0
sg19
I0
sg20
F0.0
sg21
F139130.0
sg22
F0.0
sg23
I0
sg24
F0.0
sg25
F0.0
sg26
F0.0
sg27
F139130.0
ssS'LINDHOLM TOD A'
p150
(dp151
g3
F0.0
sg4
F204075.0
sg5
I0
sg6
F57727.0
sg7
I00
sg8
F175000.0
sg9
F0.0
sg10
F0.0
sg11
F0.22833943570475254
sg12
F0.0
sg13
F0.0
sg14
F0.0
sg15
F0.0
sg16
F2630.0
sg17
I0
sg18
F0.0
sg19
F0.8458197473536415
sg20
F200000.0
sg21
F3064208.0
sg22
F0.0
sg23
I0
sg24
F514847.0
sg25
F236457.0
sg26
F875889.0
sg27
F2549361.0
ssS'MEYER JEROME J'
p152
(dp153
g3
F0.0
sg4
F0.0
sg5
I0
sg6
F2151.0
sg7
I00
sg8
F0.0
sg9
F0.0
sg10
F-38346.0
sg11
I0
sg12
F0.0
sg13
F0.0
sg14
F0.0
sg15
F0.0
sg16
F0.0
sg17
I0
sg18
F38346.0
sg19
I0
sg20
F0.0
sg21
F0.0
sg22
F0.0
sg23
I0
sg24
F0.0
sg25
F0.0
sg26
F2151.0
sg27
F0.0
ssS'LAY KENNETH L'
p154
(dp155
g3
F4273.0
sg4
F202911.0
sg5
F0.5642405803884858
sg6
F99832.0
sg7
I01
sg8
F3600000.0
sg9
F123.0
sg10
F-300000.0
sg11
F0.06759380061719514
sg12
F0.0
sg13
F2411.0
sg14
F81525000.0
sg15
F36.0
sg16
F10359729.0
sg17
F0.4444444444444444
sg18
F0.0
sg19
F6.527896031132468
sg20
F7000000.0
sg21
F49110078.0
sg22
F16.0
sg23
F0.028785396676807865
sg24
F14761694.0
sg25
F1072321.0
sg26
F103559793.0
sg27
F34348384.0
ssS'BUTTS ROBERT H'
p156
(dp157
g3
F0.0
sg4
F0.0
sg5
I0
sg6
F9410.0
sg7
I00
sg8
F175000.0
sg9
F0.0
sg10
F-75000.0
sg11
F0.5898164648445794
sg12
F0.0
sg13
F0.0
sg14
F0.0
sg15
F0.0
sg16
F150656.0
sg17
I0
sg18
F0.0
sg19
F2.8678933602532926
sg20
F750000.0
sg21
F417619.0
sg22
F0.0
sg23
I0
sg24
F417619.0
sg25
F261516.0
sg26
F1271582.0
sg27
F0.0
ssS'OLSON CINDY K'
p158
(dp159
g3
F1184.0
sg4
F77716.0
sg5
F0.722972972972973
sg6
F63791.0
sg7
I00
sg8
F100000.0
sg9
F20.0
sg10
F0.0
sg11
F0.5675124114964394
sg12
F0.0
sg13
F856.0
sg14
F0.0
sg15
F52.0
sg16
F972.0
sg17
F0.28846153846153844
sg18
F0.0
sg19
F2.279094925823057
sg20
F750000.0
sg21
F2606763.0
sg22
F15.0
sg23
F0.016891891891891893
sg24
F969729.0
sg25
F329078.0
sg26
F1321557.0
sg27
F1637034.0
ssS'MCDONALD REBECCA'
p160
(dp161
g3
F894.0
sg4
F0.0
sg5
F0.8053691275167785
sg6
F0.0
sg7
I00
sg8
F0.0
sg9
F54.0
sg10
F0.0
sg11
I0
sg12
F0.0
sg13
F720.0
sg14
F0.0
sg15
F13.0
sg16
F0.0
sg17
F0.07692307692307693
sg18
F0.0
sg19
I0
sg20
F0.0
sg21
F1691366.0
sg22
F1.0
sg23
F0.06040268456375839
sg24
F934065.0
sg25
F0.0
sg26
F0.0
sg27
F757301.0
ssS'CUMBERLAND MICHAEL S'
p162
(dp163
g3
F0.0
sg4
F0.0
sg5
I0
sg6
F22344.0
sg7
I00
sg8
F275000.0
sg9
F0.0
sg10
F0.0
sg11
F0.4022496274549604
sg12
F0.0
sg13
F0.0
sg14
F0.0
sg15
F0.0
sg16
F713.0
sg17
I0
sg18
F0.0
sg19
F1.7577163748857485
sg20
F325000.0
sg21
F207940.0
sg22
F0.0
sg23
I0
sg24
F207940.0
sg25
F184899.0
sg26
F807956.0
sg27
F0.0
ssS'GAHN ROBERT S'
p164
(dp165
g3
F0.0
sg4
F73122.0
sg5
I0
sg6
F50080.0
sg7
I00
sg8
F0.0
sg9
F0.0
sg10
F-1042.0
sg11
F0.5661542219779365
sg12
F0.0
sg13
F0.0
sg14
F0.0
sg15
F0.0
sg16
F76547.0
sg17
I0
sg18
F0.0
sg19
F2.6554622724053165
sg20
F509870.0
sg21
F318607.0
sg22
F0.0
sg23
I0
sg24
F235370.0
sg25
F192008.0
sg26
F900585.0
sg27
F83237.0
ssS'BADUM JAMES P'
p166
(dp167
g3
F0.0
sg4
F178980.0
sg5
I0
sg6
F3486.0
sg7
I00
sg8
F0.0
sg9
F0.0
sg10
F0.0
sg11
I0
sg12
F0.0
sg13
F0.0
sg14
F0.0
sg15
F0.0
sg16
F0.0
sg17
I0
sg18
F0.0
sg19
I0
sg20
F0.0
sg21
F257817.0
sg22
F0.0
sg23
I0
sg24
F0.0
sg25
F0.0
sg26
F182466.0
sg27
F257817.0
ssS'HERMANN ROBERT J'
p168
(dp169
g3
F0.0
sg4
F0.0
sg5
I0
sg6
F48357.0
sg7
I00
sg8
F150000.0
sg9
F0.0
sg10
F-280000.0
sg11
F0.5395152532523135
sg12
F0.0
sg13
F0.0
sg14
F0.0
sg15
F0.0
sg16
F416441.0
sg17
I0
sg18
F0.0
sg19
F2.665011821231007
sg20
F700000.0
sg21
F668132.0
sg22
F0.0
sg23
I0
sg24
F480632.0
sg25
F262663.0
sg26
F1297461.0
sg27
F187500.0
ssS'SCRIMSHAW MATTHEW'
p170
(dp171
g3
F0.0
sg4
F0.0
sg5
I0
sg6
F0.0
sg7
I00
sg8
F0.0
sg9
F0.0
sg10
F0.0
sg11
I0
sg12
F0.0
sg13
F0.0
sg14
F0.0
sg15
F0.0
sg16
F0.0
sg17
I0
sg18
F0.0
sg19
I0
sg20
F0.0
sg21
F759557.0
sg22
F0.0
sg23
I0
sg24
F0.0
sg25
F0.0
sg26
F0.0
sg27
F759557.0
ssS'GATHMANN WILLIAM D'
p172
(dp173
g3
F0.0
sg4
F0.0
sg5
I0
sg6
F0.0
sg7
I00
sg8
F0.0
sg9
F0.0
sg10
F0.0
sg11
I0
sg12
F-72419.0
sg13
F0.0
sg14
F0.0
sg15
F0.0
sg16
F0.0
sg17
I0
sg18
F0.0
sg19
I0
sg20
F0.0
sg21
F1945360.0
sg22
F0.0
sg23
I0
sg24
F264013.0
sg25
F0.0
sg26
F0.0
sg27
F1753766.0
ssS'HAEDICKE MARK E'
p174
(dp175
g3
F4009.0
sg4
F2157527.0
sg5
F0.4607133948615615
sg6
F76169.0
sg7
I00
sg8
F983346.0
sg9
F180.0
sg10
F-934484.0
sg11
F0.29799964499172726
sg12
F-329825.0
sg13
F1847.0
sg14
F0.0
sg15
F1941.0
sg16
F52382.0
sg17
F0.03142709943328181
sg18
F0.0
sg19
F3.073838957567658
sg20
F1150000.0
sg21
F803094.0
sg22
F61.0
sg23
F0.04489897730107259
sg24
F524169.0
sg25
F374125.0
sg26
F3859065.0
sg27
F608750.0
ssS'BOWEN JR RAYMOND M'
p176
(dp177
g3
F1858.0
sg4
F0.0
sg5
F0.8573735199138859
sg6
F65907.0
sg7
I01
sg8
F974293.0
sg9
F140.0
sg10
F-833.0
sg11
F0.5056958205926081
sg12
F0.0
sg13
F1593.0
sg14
F0.0
sg15
F27.0
sg16
F1621.0
sg17
F0.5555555555555556
sg18
F0.0
sg19
F4.845639462887786
sg20
F1350000.0
sg21
F252055.0
sg22
F15.0
sg23
F0.07534983853606028
sg24
F252055.0
sg25
F278601.0
sg26
F2669589.0
sg27
F0.0
ssS'GILLIS JOHN'
p178
(dp179
g3
F0.0
sg4
F0.0
sg5
I0
sg6
F0.0
sg7
I00
sg8
F0.0
sg9
F0.0
sg10
F0.0
sg11
I0
sg12
F0.0
sg13
F0.0
sg14
F0.0
sg15
F0.0
sg16
F0.0
sg17
I0
sg18
F0.0
sg19
I0
sg20
F0.0
sg21
F85641.0
sg22
F0.0
sg23
I0
sg24
F75838.0
sg25
F0.0
sg26
F0.0
sg27
F9803.0
ssS'FITZGERALD JAY L'
p180
(dp181
g3
F936.0
sg4
F0.0
sg5
F0.7724358974358975
sg6
F23870.0
sg7
I00
sg8
F556416.0
sg9
F1.0
sg10
F0.0
sg11
F0.24737482303865338
sg12
F0.0
sg13
F723.0
sg14
F0.0
sg15
F16.0
sg16
F285414.0
sg17
F0.5
sg18
F0.0
sg19
F1.7574074724965731
sg20
F350000.0
sg21
F1621236.0
sg22
F8.0
sg23
F0.0010683760683760685
sg24
F956775.0
sg25
F199157.0
sg26
F1414857.0
sg27
F664461.0
ssS'MORAN MICHAEL P'
p182
(dp183
g3
F672.0
sg4
F0.0
sg5
F0.18898809523809523
sg6
F0.0
sg7
I00
sg8
F0.0
sg9
F0.0
sg10
F0.0
sg11
I0
sg12
F0.0
sg13
F127.0
sg14
F0.0
sg15
F19.0
sg16
F0.0
sg17
F0.0
sg18
F0.0
sg19
I0
sg20
F0.0
sg21
F221141.0
sg22
F0.0
sg23
F0.0
sg24
F161602.0
sg25
F0.0
sg26
F0.0
sg27
F59539.0
ssS'REDMOND BRIAN L'
p184
(dp185
g3
F1671.0
sg4
F0.0
sg5
F0.6361460203470976
sg6
F14689.0
sg7
I00
sg8
F0.0
sg9
F204.0
sg10
F0.0
sg11
I0
sg12
F0.0
sg13
F1063.0
sg14
F0.0
sg15
F221.0
sg16
F0.0
sg17
F0.22171945701357465
sg18
F0.0
sg19
I0
sg20
F0.0
sg21
F7890324.0
sg22
F49.0
sg23
F0.12208258527827648
sg24
F381285.0
sg25
F96840.0
sg26
F111529.0
sg27
F7509039.0
ssS'BAZELIDES PHILIP J'
p186
(dp187
g3
F0.0
sg4
F684694.0
sg5
I0
sg6
F0.0
sg7
I00
sg8
F93750.0
sg9
F0.0
sg10
F0.0
sg11
I0
sg12
F0.0
sg13
F0.0
sg14
F0.0
sg15
F0.0
sg16
F874.0
sg17
I0
sg18
F0.0
sg19
I0
sg20
F0.0
sg21
F1599641.0
sg22
F0.0
sg23
I0
sg24
F0.0
sg25
F80818.0
sg26
F860136.0
sg27
F1599641.0
ssS'BELDEN TIMOTHY N'
p188
(dp189
g3
F7991.0
sg4
F2144013.0
sg5
F0.6909022650481792
sg6
F17355.0
sg7
I01
sg8
F0.0
sg9
F228.0
sg10
F-2334434.0
sg11
F0.9542624640333864
sg12
F0.0
sg13
F5521.0
sg14
F0.0
sg15
F484.0
sg16
F210698.0
sg17
F0.2231404958677686
sg18
F0.0
sg19
F24.532820246823583
sg20
F5249999.0
sg21
F1110705.0
sg22
F108.0
sg23
F0.028532098610937303
sg24
F157569.0
sg25
F213999.0
sg26
F5501630.0
sg27
F953136.0
ssS'DURAN WILLIAM D'
p190
(dp191
g3
F904.0
sg4
F0.0
sg5
F0.6626106194690266
sg6
F25785.0
sg7
I00
sg8
F1105218.0
sg9
F106.0
sg10
F0.0
sg11
F0.3582922929416896
sg12
F0.0
sg13
F599.0
sg14
F0.0
sg15
F12.0
sg16
F1568.0
sg17
F0.25
sg18
F0.0
sg19
F3.559698517266911
sg20
F750000.0
sg21
F1640910.0
sg22
F3.0
sg23
F0.1172566371681416
sg24
F189041.0
sg25
F210692.0
sg26
F2093263.0
sg27
F1451869.0
ssS'THORN TERENCE H'
p192
(dp193
g3
F266.0
sg4
F16586.0
sg5
F0.2744360902255639
sg6
F46145.0
sg7
I00
sg8
F200000.0
sg9
F0.0
sg10
F0.0
sg11
I0
sg12
F0.0
sg13
F73.0
sg14
F0.0
sg15
F41.0
sg16
F426629.0
sg17
F0.0
sg18
F0.0
sg19
I0
sg20
F0.0
sg21
F4817796.0
sg22
F0.0
sg23
F0.0
sg24
F365320.0
sg25
F222093.0
sg26
F911453.0
sg27
F4452476.0
ssS'FASTOW ANDREW S'
p194
(dp195
g3
F0.0
sg4
F0.0
sg5
I0
sg6
F55921.0
sg7
I01
sg8
F1736055.0
sg9
F0.0
sg10
F-1386055.0
sg11
F0.5362852674599013
sg12
F0.0
sg13
F0.0
sg14
F0.0
sg15
F0.0
sg16
F277464.0
sg17
I0
sg18
F0.0
sg19
F2.949865894558178
sg20
F1300000.0
sg21
F1794412.0
sg22
F0.0
sg23
I0
sg24
F1794412.0
sg25
F440698.0
sg26
F2424083.0
sg27
F0.0
ssS'FOY JOE'
p196
(dp197
g3
F57.0
sg4
F181755.0
sg5
F0.03508771929824561
sg6
F0.0
sg7
I00
sg8
F0.0
sg9
F0.0
sg10
F0.0
sg11
I0
sg12
F0.0
sg13
F2.0
sg14
F0.0
sg15
F13.0
sg16
F0.0
sg17
F0.0
sg18
F0.0
sg19
I0
sg20
F0.0
sg21
F343434.0
sg22
F0.0
sg23
F0.0
sg24
F0.0
sg25
F0.0
sg26
F181755.0
sg27
F343434.0
ssS'CALGER CHRISTOPHER F'
p198
(dp199
g3
F2598.0
sg4
F0.0
sg5
F0.8421862971516552
sg6
F35818.0
sg7
I01
sg8
F375304.0
sg9
F199.0
sg10
F-262500.0
sg11
F0.7625219835087845
sg12
F0.0
sg13
F2188.0
sg14
F0.0
sg15
F144.0
sg16
F486.0
sg17
F0.1736111111111111
sg18
F0.0
sg19
F5.204234998272194
sg20
F1250000.0
sg21
F126027.0
sg22
F25.0
sg23
F0.07659738260200154
sg24
F126027.0
sg25
F240189.0
sg26
F1639297.0
sg27
F0.0
ssS'RICE KENNETH D'
p200
(dp201
g3
F905.0
sg4
F0.0
sg5
F0.9546961325966851
sg6
F46950.0
sg7
I01
sg8
F1617011.0
sg9
F42.0
sg10
F-3504386.0
sg11
F3.465003465003465
sg12
F0.0
sg13
F864.0
sg14
F0.0
sg15
F18.0
sg16
F174839.0
sg17
F0.2222222222222222
sg18
F0.0
sg19
F4.160366682832663
sg20
F1750000.0
sg21
F22542539.0
sg22
F4.0
sg23
F0.04640883977900553
sg24
F2748364.0
sg25
F420636.0
sg26
F505050.0
sg27
F19794175.0
ssS'KAMINSKI WINCENTY J'
p202
(dp203
g3
F4607.0
sg4
F0.0
sg5
F0.1265465595832429
sg6
F83585.0
sg7
I00
sg8
F323466.0
sg9
F41.0
sg10
F0.0
sg11
F0.368045887961311
sg12
F0.0
sg13
F583.0
sg14
F0.0
sg15
F14368.0
sg16
F4669.0
sg17
F0.011901447661469933
sg18
F0.0
sg19
F1.4540114357999425
sg20
F400000.0
sg21
F976037.0
sg22
F171.0
sg23
F0.008899500759713479
sg24
F126027.0
sg25
F275101.0
sg26
F1086821.0
sg27
F850010.0
ssS'LOCKHART EUGENE E'
p204
(dp205
g3
F0.0
sg4
F0.0
sg5
I0
sg6
F0.0
sg7
I00
sg8
F0.0
sg9
F0.0
sg10
F0.0
sg11
I0
sg12
F0.0
sg13
F0.0
sg14
F0.0
sg15
F0.0
sg16
F0.0
sg17
I0
sg18
F0.0
sg19
I0
sg20
F0.0
sg21
F0.0
sg22
F0.0
sg23
I0
sg24
F0.0
sg25
F0.0
sg26
F0.0
sg27
F0.0
ssS'COX DAVID'
p206
(dp207
g3
F102.0
sg4
F0.0
sg5
F0.696078431372549
sg6
F27861.0
sg7
I00
sg8
F0.0
sg9
F0.0
sg10
F-41250.0
sg11
F0.7263529003725282
sg12
F0.0
sg13
F71.0
sg14
F0.0
sg15
F33.0
sg16
F494.0
sg17
F0.12121212121212122
sg18
F0.0
sg19
F2.5454360331924857
sg20
F800000.0
sg21
F495633.0
sg22
F4.0
sg23
F0.0
sg24
F378082.0
sg25
F314288.0
sg26
F1101393.0
sg27
F117551.0
ssS'OVERDYKE JR JERE C'
p208
(dp209
g3
F0.0
sg4
F0.0
sg5
I0
sg6
F18834.0
sg7
I00
sg8
F135836.0
sg9
F0.0
sg10
F0.0
sg11
I0
sg12
F0.0
sg13
F0.0
sg14
F0.0
sg15
F0.0
sg16
F176.0
sg17
I0
sg18
F0.0
sg19
I0
sg20
F0.0
sg21
F7307594.0
sg22
F0.0
sg23
I0
sg24
F2041016.0
sg25
F94941.0
sg26
F249787.0
sg27
F5266578.0
ssS'PEREIRA PAULO V. FERRAZ'
p210
(dp211
g3
F0.0
sg4
F0.0
sg5
I0
sg6
F27942.0
sg7
I00
sg8
F0.0
sg9
F0.0
sg10
F-101250.0
sg11
I0
sg12
F0.0
sg13
F0.0
sg14
F0.0
sg15
F0.0
sg16
F0.0
sg17
I0
sg18
F101250.0
sg19
I0
sg20
F0.0
sg21
F0.0
sg22
F0.0
sg23
I0
sg24
F0.0
sg25
F0.0
sg26
F27942.0
sg27
F0.0
ssS'STABLER FRANK'
p212
(dp213
g3
F0.0
sg4
F0.0
sg5
I0
sg6
F16514.0
sg7
I00
sg8
F0.0
sg9
F0.0
sg10
F0.0
sg11
F0.44960511183027946
sg12
F0.0
sg13
F0.0
sg14
F0.0
sg15
F0.0
sg16
F356071.0
sg17
I0
sg18
F0.0
sg19
F2.0876652387036434
sg20
F500000.0
sg21
F511734.0
sg22
F0.0
sg23
I0
sg24
F511734.0
sg25
F239502.0
sg26
F1112087.0
sg27
F0.0
ssS'SKILLING JEFFREY K'
p214
(dp215
g3
F3627.0
sg4
F0.0
sg5
F0.5629997242900469
sg6
F29336.0
sg7
I01
sg8
F1920000.0
sg9
F88.0
sg10
F0.0
sg11
F0.6449594804206426
sg12
F0.0
sg13
F2042.0
sg14
F0.0
sg15
F108.0
sg16
F22122.0
sg17
F0.2777777777777778
sg18
F0.0
sg19
F5.03933380007163
sg20
F5600000.0
sg21
F26093672.0
sg22
F30.0
sg23
F0.0242624758753791
sg24
F6843672.0
sg25
F1111258.0
sg26
F8682716.0
sg27
F19250000.0
ssS'BLAKE JR. NORMAN P'
p216
(dp217
g3
F0.0
sg4
F0.0
sg5
I0
sg6
F1279.0
sg7
I00
sg8
F0.0
sg9
F0.0
sg10
F-113784.0
sg11
I0
sg12
F0.0
sg13
F0.0
sg14
F0.0
sg15
F0.0
sg16
F0.0
sg17
I0
sg18
F113784.0
sg19
I0
sg20
F0.0
sg21
F0.0
sg22
F0.0
sg23
I0
sg24
F0.0
sg25
F0.0
sg26
F1279.0
sg27
F0.0
ssS'SHERRICK JEFFREY B'
p218
(dp219
g3
F613.0
sg4
F0.0
sg5
F0.9510603588907015
sg6
F0.0
sg7
I00
sg8
F0.0
sg9
F39.0
sg10
F0.0
sg11
I0
sg12
F0.0
sg13
F583.0
sg14
F0.0
sg15
F25.0
sg16
F0.0
sg17
F0.72
sg18
F0.0
sg19
I0
sg20
F0.0
sg21
F1832468.0
sg22
F18.0
sg23
F0.0636215334420881
sg24
F405999.0
sg25
F0.0
sg26
F0.0
sg27
F1426469.0
ssS'PRENTICE JAMES'
p220
(dp221
g3
F0.0
sg4
F564348.0
sg5
I0
sg6
F0.0
sg7
I00
sg8
F0.0
sg9
F0.0
sg10
F0.0
sg11
I0
sg12
F0.0
sg13
F0.0
sg14
F0.0
sg15
F0.0
sg16
F0.0
sg17
I0
sg18
F0.0
sg19
I0
sg20
F0.0
sg21
F1095040.0
sg22
F0.0
sg23
I0
sg24
F208809.0
sg25
F0.0
sg26
F564348.0
sg27
F886231.0
ssS'GRAY RODNEY'
p222
(dp223
g3
F0.0
sg4
F93585.0
sg5
I0
sg6
F0.0
sg7
I00
sg8
F365625.0
sg9
F0.0
sg10
F0.0
sg11
I0
sg12
F0.0
sg13
F0.0
sg14
F0.0
sg15
F0.0
sg16
F680833.0
sg17
I0
sg18
F0.0
sg19
I0
sg20
F0.0
sg21
F0.0
sg22
F0.0
sg23
I0
sg24
F0.0
sg25
F6615.0
sg26
F1146658.0
sg27
F0.0
ssS'PICKERING MARK R'
p224
(dp225
g3
F898.0
sg4
F0.0
sg5
F0.8106904231625836
sg6
F31653.0
sg7
I00
sg8
F0.0
sg9
F7.0
sg10
F0.0
sg11
F0.21634251346732147
sg12
F0.0
sg13
F728.0
sg14
F400000.0
sg15
F67.0
sg16
F0.0
sg17
F0.0
sg18
F0.0
sg19
F0.45798939601885086
sg20
F300000.0
sg21
F28798.0
sg22
F0.0
sg23
F0.0077951002227171495
sg24
F0.0
sg25
F655037.0
sg26
F1386690.0
sg27
F28798.0
ssS'NOLES JAMES L'
p226
(dp227
g3
F0.0
sg4
F774401.0
sg5
I0
sg6
F0.0
sg7
I00
sg8
F0.0
sg9
F0.0
sg10
F0.0
sg11
I0
sg12
F-94556.0
sg13
F0.0
sg14
F0.0
sg15
F0.0
sg16
F0.0
sg17
I0
sg18
F0.0
sg19
I0
sg20
F0.0
sg21
F368705.0
sg22
F0.0
sg23
I0
sg24
F463261.0
sg25
F0.0
sg26
F774401.0
sg27
F0.0
ssS'KEAN STEVEN J'
p228
(dp229
g3
F12754.0
sg4
F0.0
sg5
F0.2853222518425592
sg6
F41953.0
sg7
I00
sg8
F300000.0
sg9
F140.0
sg10
F0.0
sg11
F0.5722388616566773
sg12
F0.0
sg13
F3639.0
sg14
F0.0
sg15
F6759.0
sg16
F1231.0
sg17
F0.05725699067909454
sg18
F0.0
sg19
F2.473178380463869
sg20
F1000000.0
sg21
F6153642.0
sg22
F387.0
sg23
F0.010976948408342482
sg24
F4131594.0
sg25
F404338.0
sg26
F1747522.0
sg27
F2022048.0
ssS'FOWLER PEGGY'
p230
(dp231
g3
F517.0
sg4
F0.0
sg5
F0.019342359767891684
sg6
F0.0
sg7
I00
sg8
F0.0
sg9
F0.0
sg10
F0.0
sg11
I0
sg12
F0.0
sg13
F10.0
sg14
F0.0
sg15
F36.0
sg16
F0.0
sg17
F0.0
sg18
F0.0
sg19
I0
sg20
F0.0
sg21
F1884748.0
sg22
F0.0
sg23
F0.0
sg24
F560170.0
sg25
F0.0
sg26
F0.0
sg27
F1324578.0
ssS'WASAFF GEORGE'
p232
(dp233
g3
F400.0
sg4
F831299.0
sg5
F0.8425
sg6
F0.0
sg7
I00
sg8
F200000.0
sg9
F22.0
sg10
F-583325.0
sg11
F0.3141933207333755
sg12
F0.0
sg13
F337.0
sg14
F0.0
sg15
F30.0
sg16
F1425.0
sg17
F0.23333333333333334
sg18
F0.0
sg19
F1.2500192310650933
sg20
F325000.0
sg21
F2056427.0
sg22
F7.0
sg23
F0.055
sg24
F388167.0
sg25
F259996.0
sg26
F1034395.0
sg27
F1668260.0
ssS'WHITE JR THOMAS E'
p234
(dp235
g3
F0.0
sg4
F0.0
sg5
I0
sg6
F81353.0
sg7
I00
sg8
F0.0
sg9
F0.0
sg10
F0.0
sg11
F0.23263520370313887
sg12
F0.0
sg13
F0.0
sg14
F0.0
sg15
F0.0
sg16
F1085463.0
sg17
I0
sg18
F0.0
sg19
F1.417130908254945
sg20
F450000.0
sg21
F15144123.0
sg22
F0.0
sg23
I0
sg24
F13847074.0
sg25
F317543.0
sg26
F1934359.0
sg27
F1297049.0
ssS'ALLEN PHILLIP K'
p236
(dp237
g3
F2902.0
sg4
F2869717.0
sg5
F0.4848380427291523
sg6
F13868.0
sg7
I00
sg8
F304805.0
sg9
F47.0
sg10
F-3081055.0
sg11
F0.9309965431596617
sg12
F-126027.0
sg13
F1407.0
sg14
F0.0
sg15
F2195.0
sg16
F152.0
sg17
F0.029612756264236904
sg18
F0.0
sg19
F20.672922185635414
sg20
F4175000.0
sg21
F1729541.0
sg22
F65.0
sg23
F0.016195727084769126
sg24
F126027.0
sg25
F201955.0
sg26
F4484442.0
sg27
F1729541.0
ssS'SHARP VICTORIA T'
p238
(dp239
g3
F3136.0
sg4
F187469.0
sg5
F0.7898596938775511
sg6
F116337.0
sg7
I00
sg8
F422158.0
sg9
F24.0
sg10
F0.0
sg11
F0.38058725882661143
sg12
F0.0
sg13
F2477.0
sg14
F0.0
sg15
F136.0
sg16
F2401.0
sg17
F0.04411764705882353
sg18
F0.0
sg19
F2.417931379107461
sg20
F600000.0
sg21
F494136.0
sg22
F6.0
sg23
F0.007653061224489796
sg24
F213063.0
sg25
F248146.0
sg26
F1576511.0
sg27
F281073.0
ssS'JAEDICKE ROBERT'
p240
(dp241
g3
F0.0
sg4
F0.0
sg5
I0
sg6
F0.0
sg7
I00
sg8
F0.0
sg9
F0.0
sg10
F-25000.0
sg11
I0
sg12
F-44093.0
sg13
F0.0
sg14
F0.0
sg15
F0.0
sg16
F0.0
sg17
I0
sg18
F108750.0
sg19
I0
sg20
F0.0
sg21
F431750.0
sg22
F0.0
sg23
I0
sg24
F44093.0
sg25
F0.0
sg26
F83750.0
sg27
F431750.0
ssS'WINOKUR JR. HERBERT S'
p242
(dp243
g3
F0.0
sg4
F0.0
sg5
I0
sg6
F1413.0
sg7
I00
sg8
F0.0
sg9
F0.0
sg10
F-25000.0
sg11
I0
sg12
F0.0
sg13
F0.0
sg14
F0.0
sg15
F0.0
sg16
F0.0
sg17
I0
sg18
F108579.0
sg19
I0
sg20
F0.0
sg21
F0.0
sg22
F0.0
sg23
I0
sg24
F0.0
sg25
F0.0
sg26
F84992.0
sg27
F0.0
ssS'BROWN MICHAEL'
p244
(dp245
g3
F1486.0
sg4
F0.0
sg5
F0.5121130551816958
sg6
F49288.0
sg7
I00
sg8
F0.0
sg9
F13.0
sg10
F0.0
sg11
I0
sg12
F0.0
sg13
F761.0
sg14
F0.0
sg15
F41.0
sg16
F0.0
sg17
F0.024390243902439025
sg18
F0.0
sg19
I0
sg20
F0.0
sg21
F0.0
sg22
F1.0
sg23
F0.008748317631224764
sg24
F0.0
sg25
F0.0
sg26
F49288.0
sg27
F0.0
ssS'MCCLELLAN GEORGE'
p246
(dp247
g3
F1744.0
sg4
F0.0
sg5
F0.8423165137614679
sg6
F228763.0
sg7
I00
sg8
F0.0
sg9
F52.0
sg10
F-125000.0
sg11
F0.6824577274309334
sg12
F0.0
sg13
F1469.0
sg14
F0.0
sg15
F49.0
sg16
F51587.0
sg17
F0.0
sg18
F0.0
sg19
F3.4166878627858153
sg20
F900000.0
sg21
F947861.0
sg22
F0.0
sg23
F0.02981651376146789
sg24
F441096.0
sg25
F263413.0
sg26
F1318763.0
sg27
F506765.0
ssS'HUGHES JAMES A'
p248
(dp249
g3
F719.0
sg4
F0.0
sg5
F0.8191933240611962
sg6
F0.0
sg7
I00
sg8
F0.0
sg9
F35.0
sg10
F0.0
sg11
I0
sg12
F0.0
sg13
F589.0
sg14
F0.0
sg15
F34.0
sg16
F0.0
sg17
F0.14705882352941177
sg18
F0.0
sg19
I0
sg20
F0.0
sg21
F1118394.0
sg22
F5.0
sg23
F0.048678720445062586
sg24
F363428.0
sg25
F0.0
sg26
F0.0
sg27
F754966.0
ssS'REYNOLDS LAWRENCE'
p250
(dp251
g3
F0.0
sg4
F51365.0
sg5
I0
sg6
F8409.0
sg7
I00
sg8
F156250.0
sg9
F0.0
sg10
F-200000.0
sg11
F0.2535014893212498
sg12
F-140264.0
sg13
F0.0
sg14
F0.0
sg15
F0.0
sg16
F202052.0
sg17
I0
sg18
F0.0
sg19
F1.3089176559902616
sg20
F100000.0
sg21
F4221891.0
sg22
F0.0
sg23
I0
sg24
F201483.0
sg25
F76399.0
sg26
F394475.0
sg27
F4160672.0
ssS'DIMICHELE RICHARD G'
p252
(dp253
g3
F0.0
sg4
F0.0
sg5
I0
sg6
F35812.0
sg7
I00
sg8
F694862.0
sg9
F0.0
sg10
F0.0
sg11
F0.42227037042823706
sg12
F0.0
sg13
F0.0
sg14
F0.0
sg15
F0.0
sg16
F374689.0
sg17
I0
sg18
F0.0
sg19
F3.8053487982708494
sg20
F1000000.0
sg21
F8317782.0
sg22
F0.0
sg23
I0
sg24
F126027.0
sg25
F262788.0
sg26
F2368151.0
sg27
F8191755.0
ssS'BHATNAGAR SANJAY'
p254
(dp255
g3
F523.0
sg4
F0.0
sg5
F0.8852772466539197
sg6
F0.0
sg7
I00
sg8
F0.0
sg9
F0.0
sg10
F0.0
sg11
I0
sg12
F15456290.0
sg13
F463.0
sg14
F0.0
sg15
F29.0
sg16
F137864.0
sg17
F0.034482758620689655
sg18
F137864.0
sg19
I0
sg20
F0.0
sg21
F0.0
sg22
F1.0
sg23
F0.0
sg24
F-2604490.0
sg25
F0.0
sg26
F15456290.0
sg27
F2604490.0
ssS'CARTER REBECCA C'
p256
(dp257
g3
F312.0
sg4
F0.0
sg5
F0.6282051282051282
sg6
F0.0
sg7
I00
sg8
F75000.0
sg9
F29.0
sg10
F-159792.0
sg11
F0.6281972623163308
sg12
F-307301.0
sg13
F196.0
sg14
F0.0
sg15
F15.0
sg16
F540.0
sg17
F0.4666666666666667
sg18
F0.0
sg19
F1.14587351848103
sg20
F300000.0
sg21
F0.0
sg22
F7.0
sg23
F0.09294871794871795
sg24
F307301.0
sg25
F261809.0
sg26
F477557.0
sg27
F0.0
ssS'BUCHANAN HAROLD G'
p258
(dp259
g3
F1088.0
sg4
F0.0
sg5
F0.021139705882352942
sg6
F600.0
sg7
I00
sg8
F304805.0
sg9
F0.0
sg10
F0.0
sg11
F0.47409677453000415
sg12
F0.0
sg13
F23.0
sg14
F0.0
sg15
F125.0
sg16
F1215.0
sg17
F0.0
sg18
F0.0
sg19
F2.015990839337626
sg20
F500000.0
sg21
F1014505.0
sg22
F0.0
sg23
F0.0
sg24
F189041.0
sg25
F248017.0
sg26
F1054637.0
sg27
F825464.0
ssS'YEAP SOON'
p260
(dp261
g3
F0.0
sg4
F0.0
sg5
I0
sg6
F55097.0
sg7
I00
sg8
F0.0
sg9
F0.0
sg10
F0.0
sg11
I0
sg12
F0.0
sg13
F0.0
sg14
F0.0
sg15
F0.0
sg16
F0.0
sg17
I0
sg18
F0.0
sg19
I0
sg20
F0.0
sg21
F192758.0
sg22
F0.0
sg23
I0
sg24
F0.0
sg25
F0.0
sg26
F55097.0
sg27
F192758.0
ssS'MURRAY JULIA H'
p262
(dp263
g3
F2192.0
sg4
F0.0
sg5
F0.1802007299270073
sg6
F57580.0
sg7
I00
sg8
F125000.0
sg9
F11.0
sg10
F0.0
sg11
F0.4924931728133919
sg12
F0.0
sg13
F395.0
sg14
F0.0
sg15
F45.0
sg16
F330.0
sg17
F0.044444444444444446
sg18
F0.0
sg19
F1.744561330053558
sg20
F400000.0
sg21
F597461.0
sg22
F2.0
sg23
F0.005018248175182482
sg24
F196983.0
sg25
F229284.0
sg26
F812194.0
sg27
F400478.0
ssS'GARLAND C KEVIN'
p264
(dp265
g3
F209.0
sg4
F0.0
sg5
F0.8516746411483254
sg6
F48405.0
sg7
I00
sg8
F375304.0
sg9
F10.0
sg10
F0.0
sg11
F0.5426216541789208
sg12
F0.0
sg13
F178.0
sg14
F0.0
sg15
F44.0
sg16
F60814.0
sg17
F0.6136363636363636
sg18
F0.0
sg19
F3.6646460814155017
sg20
F850000.0
sg21
F896153.0
sg22
F27.0
sg23
F0.04784688995215311
sg24
F259907.0
sg25
F231946.0
sg26
F1566469.0
sg27
F636246.0
ssS'DODSON KEITH'
p266
(dp267
g3
F176.0
sg4
F0.0
sg5
F0.6477272727272727
sg6
F28164.0
sg7
I00
sg8
F0.0
sg9
F10.0
sg10
F0.0
sg11
F0.21879033946883958
sg12
F0.0
sg13
F114.0
sg14
F0.0
sg15
F14.0
sg16
F774.0
sg17
F0.21428571428571427
sg18
F0.0
sg19
F0.3167377818400655
sg20
F70000.0
sg21
F0.0
sg22
F3.0
sg23
F0.056818181818181816
sg24
F0.0
sg25
F221003.0
sg26
F319941.0
sg27
F0.0
ssS'YEAGER F SCOTT'
p268
(dp269
g3
F0.0
sg4
F0.0
sg5
I0
sg6
F53947.0
sg7
I01
sg8
F0.0
sg9
F0.0
sg10
F0.0
sg11
I0
sg12
F0.0
sg13
F0.0
sg14
F0.0
sg15
F0.0
sg16
F147950.0
sg17
I0
sg18
F0.0
sg19
I0
sg20
F0.0
sg21
F11884758.0
sg22
F0.0
sg23
I0
sg24
F3576206.0
sg25
F158403.0
sg26
F360300.0
sg27
F8308552.0
ssS'HIRKO JOSEPH'
p270
(dp271
g3
F0.0
sg4
F10259.0
sg5
I0
sg6
F77978.0
sg7
I01
sg8
F0.0
sg9
F0.0
sg10
F0.0
sg11
I0
sg12
F0.0
sg13
F0.0
sg14
F0.0
sg15
F0.0
sg16
F2856.0
sg17
I0
sg18
F0.0
sg19
I0
sg20
F0.0
sg21
F30766064.0
sg22
F0.0
sg23
I0
sg24
F0.0
sg25
F0.0
sg26
F91093.0
sg27
F30766064.0
ssS'DIETRICH JANET R'
p272
(dp273
g3
F2572.0
sg4
F0.0
sg5
F0.73950233281493
sg6
F3475.0
sg7
I00
sg8
F556416.0
sg9
F305.0
sg10
F0.0
sg11
F0.4253919277627788
sg12
F0.0
sg13
F1902.0
sg14
F0.0
sg15
F63.0
sg16
F473.0
sg17
F0.2222222222222222
sg18
F0.0
sg19
F2.3990403838464616
sg20
F600000.0
sg21
F1865087.0
sg22
F14.0
sg23
F0.11858475894245724
sg24
F315068.0
sg25
F250100.0
sg26
F1410464.0
sg27
F1550019.0
ssS'DERRICK JR. JAMES V'
p274
(dp275
g3
F2181.0
sg4
F0.0
sg5
F0.6423658872077029
sg6
F51124.0
sg7
I00
sg8
F484000.0
sg9
F64.0
sg10
F-1284000.0
sg11
F1.4519556935720106
sg12
F-1787380.0
sg13
F1401.0
sg14
F0.0
sg15
F909.0
sg16
F7482.0
sg17
F0.022002200220022004
sg18
F0.0
sg19
F1.6247778624016247
sg20
F800000.0
sg21
F8831913.0
sg22
F20.0
sg23
F0.029344337459880788
sg24
F1787380.0
sg25
F492375.0
sg26
F550981.0
sg27
F8831913.0
ssS'PAI LOU L'
p276
(dp277
g3
F0.0
sg4
F0.0
sg5
I0
sg6
F32047.0
sg7
I00
sg8
F0.0
sg9
F0.0
sg10
F0.0
sg11
F0.3201656665224854
sg12
F0.0
sg13
F0.0
sg14
F0.0
sg15
F0.0
sg16
F1829457.0
sg17
I0
sg18
F0.0
sg19
F3.8185574253758414
sg20
F1000000.0
sg21
F23817930.0
sg22
F0.0
sg23
I0
sg24
F8453763.0
sg25
F261879.0
sg26
F3123383.0
sg27
F15364167.0
ssS'BAY FRANKLIN R'
p278
(dp279
g3
F0.0
sg4
F260455.0
sg5
I0
sg6
F129142.0
sg7
I00
sg8
F0.0
sg9
F0.0
sg10
F-201641.0
sg11
F0.48326921961686414
sg12
F-82782.0
sg13
F0.0
sg14
F0.0
sg15
F0.0
sg16
F69.0
sg17
I0
sg18
F0.0
sg19
F1.6689545251615756
sg20
F400000.0
sg21
F63014.0
sg22
F0.0
sg23
I0
sg24
F145796.0
sg25
F239671.0
sg26
F827696.0
sg27
F0.0
ssS'MCCARTY DANNY J'
p280
(dp281
g3
F1433.0
sg4
F0.0
sg5
F0.35450104675505933
sg6
F0.0
sg7
I00
sg8
F0.0
sg9
F25.0
sg10
F0.0
sg11
I0
sg12
F0.0
sg13
F508.0
sg14
F0.0
sg15
F215.0
sg16
F0.0
sg17
F0.009302325581395349
sg18
F0.0
sg19
I0
sg20
F0.0
sg21
F758931.0
sg22
F2.0
sg23
F0.017445917655268667
sg24
F94556.0
sg25
F0.0
sg26
F0.0
sg27
F664375.0
ssS'FUGH JOHN L'
p282
(dp283
g3
F0.0
sg4
F50591.0
sg5
I0
sg6
F0.0
sg7
I00
sg8
F0.0
sg9
F0.0
sg10
F0.0
sg11
I0
sg12
F0.0
sg13
F0.0
sg14
F0.0
sg15
F0.0
sg16
F0.0
sg17
I0
sg18
F0.0
sg19
I0
sg20
F0.0
sg21
F176378.0
sg22
F0.0
sg23
I0
sg24
F0.0
sg25
F0.0
sg26
F50591.0
sg27
F176378.0
ssS'FALLON JAMES B'
p284
(dp285
g3
F1755.0
sg4
F0.0
sg5
F0.913960113960114
sg6
F95924.0
sg7
I00
sg8
F374347.0
sg9
F42.0
sg10
F0.0
sg11
F0.6800241544579664
sg12
F0.0
sg13
F1604.0
sg14
F0.0
sg15
F75.0
sg16
F401481.0
sg17
F0.49333333333333335
sg18
F0.0
sg19
F8.207808580771403
sg20
F2500000.0
sg21
F2332399.0
sg22
F37.0
sg23
F0.023931623931623933
sg24
F1392142.0
sg25
F304588.0
sg26
F3676340.0
sg27
F940257.0
ssS'KOENIG MARK E'
p286
(dp287
g3
F2374.0
sg4
F0.0
sg5
F0.9566133108677338
sg6
F127017.0
sg7
I01
sg8
F300000.0
sg9
F53.0
sg10
F0.0
sg11
F0.44096682606567505
sg12
F0.0
sg13
F2271.0
sg14
F0.0
sg15
F61.0
sg16
F150458.0
sg17
F0.2459016393442623
sg18
F0.0
sg19
F2.2584579249288588
sg20
F700000.0
sg21
F1920055.0
sg22
F15.0
sg23
F0.02232518955349621
sg24
F1248318.0
sg25
F309946.0
sg26
F1587421.0
sg27
F671737.0
ssS'SAVAGE FRANK'
p288
(dp289
g3
F0.0
sg4
F0.0
sg5
I0
sg6
F0.0
sg7
I00
sg8
F0.0
sg9
F0.0
sg10
F-121284.0
sg11
I0
sg12
F0.0
sg13
F0.0
sg14
F0.0
sg15
F0.0
sg16
F0.0
sg17
I0
sg18
F125034.0
sg19
I0
sg20
F0.0
sg21
F0.0
sg22
F0.0
sg23
I0
sg24
F0.0
sg25
F0.0
sg26
F3750.0
sg27
F0.0
ssS'IZZO LAWRENCE L'
p290
(dp291
g3
F496.0
sg4
F0.0
sg5
F0.8810483870967742
sg6
F28093.0
sg7
I00
sg8
F312500.0
sg9
F28.0
sg10
F0.0
sg11
I0
sg12
F0.0
sg13
F437.0
sg14
F0.0
sg15
F19.0
sg16
F1553729.0
sg17
F0.2631578947368421
sg18
F0.0
sg19
I0
sg20
F0.0
sg21
F5819980.0
sg22
F5.0
sg23
F0.056451612903225805
sg24
F3654808.0
sg25
F85274.0
sg26
F1979596.0
sg27
F2165172.0
ssS'TILNEY ELIZABETH A'
p292
(dp293
g3
F460.0
sg4
F0.0
sg5
F0.8239130434782609
sg6
F0.0
sg7
I00
sg8
F275000.0
sg9
F10.0
sg10
F-575000.0
sg11
F0.7511398547295521
sg12
F0.0
sg13
F379.0
sg14
F0.0
sg15
F19.0
sg16
F152055.0
sg17
F0.5789473684210527
sg18
F0.0
sg19
F1.2129151201998885
sg20
F300000.0
sg21
F1168042.0
sg22
F11.0
sg23
F0.021739130434782608
sg24
F576792.0
sg25
F247338.0
sg26
F399393.0
sg27
F591250.0
ssS'MARTIN AMANDA K'
p294
(dp295
g3
F1522.0
sg4
F85430.0
sg5
F0.31340341655716164
sg6
F8211.0
sg7
I00
sg8
F5145434.0
sg9
F8.0
sg10
F0.0
sg11
I0
sg12
F0.0
sg13
F477.0
sg14
F0.0
sg15
F230.0
sg16
F2818454.0
sg17
F0.0
sg18
F0.0
sg19
I0
sg20
F0.0
sg21
F2070306.0
sg22
F0.0
sg23
F0.005256241787122208
sg24
F0.0
sg25
F349487.0
sg26
F8407016.0
sg27
F2070306.0
ssS'BUY RICHARD B'
p296
(dp297
g3
F3523.0
sg4
F649584.0
sg5
F0.6622196991200682
sg6
F0.0
sg7
I00
sg8
F769862.0
sg9
F156.0
sg10
F-694862.0
sg11
F0.38205171961479
sg12
F0.0
sg13
F2333.0
sg14
F0.0
sg15
F1053.0
sg16
F400572.0
sg17
F0.06742640075973409
sg18
F0.0
sg19
F2.722767784211577
sg20
F900000.0
sg21
F3444470.0
sg22
F71.0
sg23
F0.04428044280442804
sg24
F901657.0
sg25
F330546.0
sg26
F2355702.0
sg27
F2542813.0
ssS'GRAMM WENDY L'
p298
(dp299
g3
F0.0
sg4
F0.0
sg5
I0
sg6
F0.0
sg7
I00
sg8
F0.0
sg9
F0.0
sg10
F0.0
sg11
I0
sg12
F0.0
sg13
F0.0
sg14
F0.0
sg15
F0.0
sg16
F0.0
sg17
I0
sg18
F119292.0
sg19
I0
sg20
F0.0
sg21
F0.0
sg22
F0.0
sg23
I0
sg24
F0.0
sg25
F0.0
sg26
F119292.0
sg27
F0.0
ssS'CAUSEY RICHARD A'
p300
(dp301
g3
F1892.0
sg4
F0.0
sg5
F0.837737843551797
sg6
F30674.0
sg7
I01
sg8
F350000.0
sg9
F58.0
sg10
F-235000.0
sg11
F0.5351147660638778
sg12
F0.0
sg13
F1585.0
sg14
F0.0
sg15
F49.0
sg16
F307895.0
sg17
F0.24489795918367346
sg18
F0.0
sg19
F2.4085416521150607
sg20
F1000000.0
sg21
F2502063.0
sg22
F12.0
sg23
F0.0306553911205074
sg24
F2502063.0
sg25
F415189.0
sg26
F1868758.0
sg27
F0.0
ssS'TAYLOR MITCHELL S'
p302
(dp303
g3
F533.0
sg4
F227449.0
sg5
F0.5628517823639775
sg6
F0.0
sg7
I00
sg8
F0.0
sg9
F0.0
sg10
F0.0
sg11
F0.5491171568910085
sg12
F0.0
sg13
F300.0
sg14
F0.0
sg15
F29.0
sg16
F0.0
sg17
F0.0
sg18
F0.0
sg19
F2.2623240100447184
sg20
F600000.0
sg21
F3745048.0
sg22
F0.0
sg23
F0.0
sg24
F563798.0
sg25
F265214.0
sg26
F1092663.0
sg27
F3181250.0
ssS'DONAHUE JR JEFFREY M'
p304
(dp305
g3
F865.0
sg4
F0.0
sg5
F0.892485549132948
sg6
F96268.0
sg7
I00
sg8
F0.0
sg9
F188.0
sg10
F-300000.0
sg11
F0.9134922809902256
sg12
F0.0
sg13
F772.0
sg14
F0.0
sg15
F22.0
sg16
F891.0
sg17
F0.5
sg18
F0.0
sg19
F2.8714900520816506
sg20
F800000.0
sg21
F1080988.0
sg22
F11.0
sg23
F0.21734104046242775
sg24
F315068.0
sg25
F278601.0
sg26
F875760.0
sg27
F765920.0
ssS'GLISAN JR BEN F'
p306
(dp307
g3
F873.0
sg4
F0.0
sg5
F1.0011454753722795
sg6
F125978.0
sg7
I01
sg8
F71023.0
sg9
F52.0
sg10
F0.0
sg11
F0.4715928204709012
sg12
F0.0
sg13
F874.0
sg14
F0.0
sg15
F16.0
sg16
F200308.0
sg17
F0.375
sg18
F0.0
sg19
F2.1820165469588146
sg20
F600000.0
sg21
F778546.0
sg22
F6.0
sg23
F0.05956471935853379
sg24
F393818.0
sg25
F274975.0
sg26
F1272284.0
sg27
F384728.0
ss.