(lp0
S'poi'
p1
aS'salary'
p2
aS'bonus'
p3
aS'to_poi_ratio'
p4
aS'from_poi_ratio'
p5
aS'ratio_bonus_salary'
p6
aS'ratio_bonus_payments'
p7
aS'to_messages'
p8
aS'deferral_payments'
p9
aS'total_payments'
p10
aS'exercised_stock_options'
p11
aS'restricted_stock'
p12
aS'shared_receipt_with_poi'
p13
aS'restricted_stock_deferred'
p14
aS'total_stock_value'
p15
aS'expenses'
p16
aS'loan_advances'
p17
aS'from_messages'
p18
aS'other'
p19
aS'from_this_person_to_poi'
p20
aS'director_fees'
p21
aS'deferred_income'
p22
aS'long_term_incentive'
p23
aS'from_poi_to_this_person'
p24
a.